; Function Attrs: mustprogress uwtable
define hidden noundef ptr @_ZNK7bv_util10mk_numeralERK8rationalP4sort(ptr noundef nonnull readonly align 8 captures(none) dereferenceable(24) %0, ptr noundef nonnull align 8 dereferenceable(32) %1, ptr noundef readonly captures(none) %2) local_unnamed_addr #3 align 2 {
  %4 = getelementptr inbounds nuw i8, ptr %2, i64 24
  %5 = load ptr, ptr %4, align 8, !tbaa !134
  %6 = icmp eq ptr %5, null
  br i1 %6, label %_ZNK14bv_recognizers10is_bv_sortEPK4sort.exit.thread, label %_ZNK4decl13get_family_idEv.exit.thread.i

_ZNK4decl13get_family_idEv.exit.thread.i:         ; preds = %3
  %7 = load i32, ptr %5, align 8, !tbaa !19
  %8 = load i32, ptr %0, align 8, !tbaa !179
  %9 = icmp eq i32 %7, %8
  br i1 %9, label %_ZNK4decl13get_decl_kindEv.exit.i, label %_ZNK14bv_recognizers10is_bv_sortEPK4sort.exit.thread

_ZNK4decl13get_decl_kindEv.exit.i:                ; preds = %_ZNK4decl13get_family_idEv.exit.thread.i
  %10 = getelementptr inbounds nuw i8, ptr %5, i64 4
  %11 = load i32, ptr %10, align 4, !tbaa !137
  %12 = icmp eq i32 %11, 0
  br i1 %12, label %13, label %_ZNK14bv_recognizers10is_bv_sortEPK4sort.exit.thread

13:                                               ; preds = %_ZNK4decl13get_decl_kindEv.exit.i
  %14 = getelementptr inbounds nuw i8, ptr %5, i64 8
  %15 = load ptr, ptr %14, align 8, !tbaa !37
  %16 = icmp eq ptr %15, null
  br i1 %16, label %_ZNK14bv_recognizers10is_bv_sortEPK4sort.exit.thread, label %_ZNK14bv_recognizers10is_bv_sortEPK4sort.exit

_ZNK14bv_recognizers10is_bv_sortEPK4sort.exit:    ; preds = %13
  %17 = getelementptr inbounds i8, ptr %15, i64 -4
  %18 = load i32, ptr %17, align 4, !tbaa !38
  %19 = icmp eq i32 %18, 1
  br i1 %19, label %20, label %_ZNK14bv_recognizers10is_bv_sortEPK4sort.exit.thread

20:                                               ; preds = %_ZNK14bv_recognizers10is_bv_sortEPK4sort.exit
  %21 = getelementptr inbounds nuw i8, ptr %15, i64 8
  %22 = load i8, ptr %21, align 8, !tbaa !117
  %.not.i.i.i.i = icmp eq i8 %22, 0
  br i1 %.not.i.i.i.i, label %_ZNK7bv_util11get_bv_sizeEPK4sort.exit, label %23

23:                                               ; preds = %20
  %24 = tail call ptr @__cxa_allocate_exception(i64 16) #24
  store ptr getelementptr inbounds nuw inrange(-16, 24) (i8, ptr @_ZTVSt18bad_variant_access, i64 16), ptr %24, align 8, !tbaa !11
  %25 = getelementptr inbounds nuw i8, ptr %24, i64 8
  store ptr @.str.113, ptr %25, align 8, !tbaa !130
  tail call void @__cxa_throw(ptr nonnull %24, ptr nonnull @_ZTISt18bad_variant_access, ptr nonnull @_ZNSt9exceptionD2Ev) #26
  unreachable

_ZNK7bv_util11get_bv_sizeEPK4sort.exit:           ; preds = %20
  %26 = load i32, ptr %15, align 4, !tbaa !38
  %27 = tail call noundef ptr @_ZNK7bv_util10mk_numeralERK8rationalj(ptr noundef nonnull align 8 dereferenceable(24) %0, ptr noundef nonnull align 8 dereferenceable(32) %1, i32 noundef %26)
  br label %_ZNK14bv_recognizers10is_bv_sortEPK4sort.exit.thread

_ZNK14bv_recognizers10is_bv_sortEPK4sort.exit.thread: ; preds = %13, %3, %_ZNK4decl13get_family_idEv.exit.thread.i, %_ZNK4decl13get_decl_kindEv.exit.i, %_ZNK14bv_recognizers10is_bv_sortEPK4sort.exit, %_ZNK7bv_util11get_bv_sizeEPK4sort.exit
  %.0 = phi ptr [ %27, %_ZNK7bv_util11get_bv_sizeEPK4sort.exit ], [ null, %_ZNK14bv_recognizers10is_bv_sortEPK4sort.exit ], [ null, %_ZNK4decl13get_decl_kindEv.exit.i ], [ null, %_ZNK4decl13get_family_idEv.exit.thread.i ], [ null, %3 ], [ null, %13 ]
  ret ptr %.0
}